; Function Attrs: mustprogress uwtable
define hidden noundef i32 @_ZN3smt24theory_special_relations12propagate_poERNS0_4atomE(ptr nocapture noundef nonnull readonly align 8 dereferenceable(145) %this, ptr noundef nonnull align 8 dereferenceable(36) %a) local_unnamed_addr #3 align 2 {
entry:
  %m_phase.i = getelementptr inbounds i8, ptr %a, i64 16
  %0 = load i8, ptr %m_phase.i, align 8
  %1 = and i8 %0, 1
  %tobool.i.not = icmp eq i8 %1, 0
  br i1 %tobool.i.not, label %if.end, label %if.then

if.then:                                          ; preds = %entry
  %m_relation.i = getelementptr inbounds i8, ptr %a, i64 8
  %2 = load ptr, ptr %m_relation.i, align 8
  %m_uf = getelementptr inbounds i8, ptr %2, i64 488
  %m_v1.i = getelementptr inbounds i8, ptr %a, i64 20
  %3 = load i32, ptr %m_v1.i, align 4
  %m_v2.i = getelementptr inbounds i8, ptr %a, i64 24
  %4 = load i32, ptr %m_v2.i, align 8
  tail call void @_ZN10union_findI22union_find_default_ctxS0_E5mergeEjj(ptr noundef nonnull align 8 dereferenceable(56) %m_uf, i32 noundef %3, i32 noundef %4)
  %call.i = tail call noundef zeroext i1 @_ZN3smt24theory_special_relations4atom6enableEv(ptr noundef nonnull align 8 dereferenceable(36) %a)
  br i1 %call.i, label %if.end, label %if.then.i

if.then.i:                                        ; preds = %if.then
  %5 = load ptr, ptr %m_relation.i, align 8
  %m_explanation.i.i = getelementptr inbounds i8, ptr %5, i64 544
  %6 = load ptr, ptr %m_explanation.i.i, align 8
  %tobool.not.i.i.i = icmp eq ptr %6, null
  br i1 %tobool.not.i.i.i, label %_ZN3smt24theory_special_relations22set_neg_cycle_conflictERNS0_8relationE.exit.i, label %if.then.i.i.i

if.then.i.i.i:                                    ; preds = %if.then.i
  %arrayidx.i.i.i = getelementptr inbounds i8, ptr %6, i64 -4
  store i32 0, ptr %arrayidx.i.i.i, align 4
  br label %_ZN3smt24theory_special_relations22set_neg_cycle_conflictERNS0_8relationE.exit.i

_ZN3smt24theory_special_relations22set_neg_cycle_conflictERNS0_8relationE.exit.i: ; preds = %if.then.i.i.i, %if.then.i
  %m_graph.i.i = getelementptr inbounds i8, ptr %5, i64 64
  tail call void @_ZN8dl_graphIN3smt24theory_special_relations7int_extEE19traverse_neg_cycle2INS1_8relationEEEvbRT_(ptr noundef nonnull align 8 dereferenceable(368) %m_graph.i.i, i1 noundef zeroext false, ptr noundef nonnull align 8 dereferenceable(552) %5)
  tail call void @_ZN3smt24theory_special_relations12set_conflictERNS0_8relationE(ptr noundef nonnull align 8 dereferenceable(145) %this, ptr noundef nonnull align 8 dereferenceable(552) %5)
  br label %if.end

if.end:                                           ; preds = %_ZN3smt24theory_special_relations22set_neg_cycle_conflictERNS0_8relationE.exit.i, %if.then, %entry
  %res.0 = phi i32 [ 1, %entry ], [ -1, %_ZN3smt24theory_special_relations22set_neg_cycle_conflictERNS0_8relationE.exit.i ], [ 1, %if.then ]
  ret i32 %res.0
}